; Function Attrs: mustprogress uwtable
define hidden void @_ZN3sat4ddfw18remove_assumptionsEv(ptr noundef nonnull align 8 dereferenceable(434) %0) local_unnamed_addr #4 align 2 {
  %2 = getelementptr inbounds nuw i8, ptr %0, i64 80
  %3 = load ptr, ptr %2, align 8, !tbaa !37
  %4 = icmp eq ptr %3, null
  br i1 %4, label %_ZNK6vectorIN3sat7literalELb0EjE5emptyEv.exit.thread, label %_ZNK6vectorIN3sat7literalELb0EjE5emptyEv.exit

_ZNK6vectorIN3sat7literalELb0EjE5emptyEv.exit:    ; preds = %1
  %5 = getelementptr inbounds i8, ptr %3, i64 -4
  %6 = load i32, ptr %5, align 4, !tbaa !26
  %7 = icmp eq i32 %6, 0
  br i1 %7, label %_ZNK6vectorIN3sat7literalELb0EjE5emptyEv.exit.thread, label %.preheader

.preheader:                                       ; preds = %_ZNK6vectorIN3sat7literalELb0EjE5emptyEv.exit, %15
  %8 = phi ptr [ %.pre, %15 ], [ %3, %_ZNK6vectorIN3sat7literalELb0EjE5emptyEv.exit ]
  %.0 = phi i32 [ %16, %15 ], [ 0, %_ZNK6vectorIN3sat7literalELb0EjE5emptyEv.exit ]
  %9 = icmp eq ptr %8, null
  br i1 %9, label %_ZNK6vectorIN3sat7literalELb0EjE4sizeEv.exit, label %10

10:                                               ; preds = %.preheader
  %11 = getelementptr inbounds i8, ptr %8, i64 -4
  %12 = load i32, ptr %11, align 4, !tbaa !26
  br label %_ZNK6vectorIN3sat7literalELb0EjE4sizeEv.exit

_ZNK6vectorIN3sat7literalELb0EjE4sizeEv.exit:     ; preds = %.preheader, %10
  %.0.i = phi i32 [ %12, %10 ], [ 0, %.preheader ]
  %13 = icmp ult i32 %.0, %.0.i
  br i1 %13, label %15, label %14

14:                                               ; preds = %_ZNK6vectorIN3sat7literalELb0EjE4sizeEv.exit
  tail call void @_ZN3sat4ddfw4initEjPKNS_7literalE(ptr noundef nonnull align 8 dereferenceable(434) %0, i32 noundef 0, ptr noundef null)
  br label %_ZNK6vectorIN3sat7literalELb0EjE5emptyEv.exit.thread

15:                                               ; preds = %_ZNK6vectorIN3sat7literalELb0EjE4sizeEv.exit
  tail call void @_ZN3sat4ddfw3delEv(ptr noundef nonnull align 8 dereferenceable(434) %0)
  %16 = add nuw i32 %.0, 1
  %.pre = load ptr, ptr %2, align 8, !tbaa !37
  br label %.preheader, !llvm.loop !51

_ZNK6vectorIN3sat7literalELb0EjE5emptyEv.exit.thread: ; preds = %1, %_ZNK6vectorIN3sat7literalELb0EjE5emptyEv.exit, %14
  ret void
}